; Function Attrs: mustprogress uwtable
define hidden noundef zeroext i1 @_ZN3nla15monomial_bounds9is_linearERKNS_5monicERjS4_(ptr nocapture noundef nonnull readonly align 8 dereferenceable(192) %this, ptr nocapture noundef nonnull readonly align 8 dereferenceable(34) %m, ptr nocapture noundef nonnull align 4 dereferenceable(4) %w, ptr nocapture noundef nonnull writeonly align 4 dereferenceable(4) %fixed_to_zero) local_unnamed_addr #3 align 2 {
entry:
  store i32 -1, ptr %fixed_to_zero, align 4
  store i32 -1, ptr %w, align 4
  %m_vs.i.i = getelementptr inbounds i8, ptr %m, i64 8
  %0 = load ptr, ptr %m_vs.i.i, align 8
  %cmp.i.i.i = icmp eq ptr %0, null
  br i1 %cmp.i.i.i, label %return, label %_ZNK3nla5monic3endEv.exit

_ZNK3nla5monic3endEv.exit:                        ; preds = %entry
  %arrayidx.i.i.i = getelementptr inbounds i8, ptr %0, i64 -4
  %1 = load i32, ptr %arrayidx.i.i.i, align 4
  %2 = zext i32 %1 to i64
  %add.ptr.i.i = getelementptr inbounds i32, ptr %0, i64 %2
  %cmp.not11 = icmp eq i32 %1, 0
  br i1 %cmp.not11, label %return, label %for.body

for.body:                                         ; preds = %_ZNK3nla5monic3endEv.exit, %for.inc
  %__begin1.012 = phi ptr [ %incdec.ptr, %for.inc ], [ %0, %_ZNK3nla5monic3endEv.exit ]
  %3 = load i32, ptr %__begin1.012, align 4
  %4 = load ptr, ptr %this, align 8
  %call4 = tail call noundef zeroext i1 @_ZNK3nla4core12var_is_fixedEj(ptr noundef nonnull align 8 dereferenceable(4720) %4, i32 noundef %3)
  br i1 %call4, label %if.else, label %if.then

if.then:                                          ; preds = %for.body
  %5 = load i32, ptr %w, align 4
  %cmp5.not = icmp eq i32 %5, -1
  br i1 %cmp5.not, label %if.end, label %return

if.end:                                           ; preds = %if.then
  store i32 %3, ptr %w, align 4
  br label %for.inc

if.else:                                          ; preds = %for.body
  %6 = load ptr, ptr %this, align 8
  %call8 = tail call noundef nonnull align 8 dereferenceable(32) ptr @_ZNK3nla4core15get_lower_boundEj(ptr noundef nonnull align 8 dereferenceable(4720) %6, i32 noundef %3)
  %7 = load i32, ptr %call8, align 8
  %cmp.i.i.i.i = icmp eq i32 %7, 0
  br i1 %cmp.i.i.i.i, label %if.then10, label %for.inc

if.then10:                                        ; preds = %if.else
  store i32 %3, ptr %fixed_to_zero, align 4
  br label %return

for.inc:                                          ; preds = %if.end, %if.else
  %incdec.ptr = getelementptr inbounds i8, ptr %__begin1.012, i64 4
  %cmp.not = icmp eq ptr %incdec.ptr, %add.ptr.i.i
  br i1 %cmp.not, label %return, label %for.body

return:                                           ; preds = %if.then, %for.inc, %entry, %_ZNK3nla5monic3endEv.exit, %if.then10
  %retval.0 = phi i1 [ true, %if.then10 ], [ true, %_ZNK3nla5monic3endEv.exit ], [ true, %entry ], [ false, %if.then ], [ true, %for.inc ]
  ret i1 %retval.0
}